
 Start  Stop   Length Name                   Class            Group
 00000H 02935H 02936H CODE                   CODE
 02936H 04727H 01DF2H DATA                   DATA
 04730H 0499DH 0026EH EMMCOD                 EMMCOD
 049A0H 049C9H 0002AH EMMDAT                 EMMDAT
 049D0H 0519FH 007D0H STACK                  
 051A0H 051A0H 00000H SEGFREE                SEGFREE

 Origin   Group

  Address         Publics by Value

 0000:01E0       DCOPY2HD
 0000:05C8       P_CPY_S_DISK
 0000:0603       P_CPY_D_DISK
 0000:063E       DCRD_ERR_CHK
 0000:06B4       DCWR_ERR_CHK
 0000:07A1       WRT_DISK_CHK
 0000:0858       WRT_DISK_CHK_D
 0000:08A0       DRVNOSET
 0000:08B9       DRVNORED
 0000:0927       RDSECTOR
 0000:09B1       WTSECTOR
 0000:0A3D       VRFYSECTOR
 0000:0BF9       DOSRESET
 0000:0C06       DCOPY2HDEMS
 0000:1042       DCOPYEMS_RD
 0000:1108       DCOPYEMS_WT
 0000:11FE       DCOPYEMS_VR
 0000:13DA       DCOPYDUP
 0000:18F4       SET_SHORICHU
 0000:18FB       SHOW_FDDOORS
 0000:1A80       SHOW_DRV_CHECK
 0000:1B50       MEMOPN
 0000:1B82       MEMCLS
 0000:1B83       MEMSEK
 0000:1BA0       GETARG
 0000:1C30       PRINT
 0000:1C47       DECSTR
 0000:1C7E       INPUT
 0000:1C9F       STRDEC
 0000:1CD8       HEXSTR
 0000:1D1A       STRHEX
 0000:1D47       BINSTR
 0000:1D72       STRBIN
 0000:1D8F       CHPUT
 0000:1D96       KESCAP
 0000:1DDF       KEYLOD
 0000:1DEC       PRNAB
 0000:1E00       LFPRN
 0000:1E09       STRZTS
 0000:1E25       STRSPL
 0000:1E60       CCCIN
 0000:1E78       CCCOUT
 0000:1E94       CCCRD
 0000:1EA8       CCCLOC
 0000:1EC2       CCCCOL
 0000:1ED4       CCCCLA
 0000:1ED8       CCCCGT
 0000:1EDC       CCCINB
 0000:1EFE       CCCFKY
 0000:1F12       CCCKCR
 0000:1F28       CCCKIN
 0000:2320       TXVW_INPUT
 0000:2340       TXVW_PRINT
 0000:2356       TXVW_PRNXT
 0000:2364       TXVW_REPEAT
 0000:2382       TXVW_CLEAR
 0000:2397       TXVW_CLS
 0000:23B6       TXVW_UWAIT
 0000:23CB       TXVW_UWAIT2
 0000:23E2       TXVW_INKEY
 0000:23E6       TXVW_1TO4N
 0000:2416       TXVW_FRAME
 0000:2444       TXVW_FRAME_S
 0000:24CC       TXVW_FRMCLS
 0000:24EB       TXVW_FRMCLS_S
 0000:2549       TXVW_TXVIEWMODE
 0000:2550       TXVW_RETDOSMODE
 0000:2570       VRMGRPMDE
 0000:25B2       VRMRETMDE
 0000:25B3       VRMSTOP
 0000:25C1       VRMCLR
 0000:2602       VRM98DP
 0000:2610       VRM98WT
 0000:261E       VRM98NOW
 0000:2630       GDCSRT
 0000:2635       GDCSTP
 0000:263A       GDCSET
 0000:2643       GDCPLT
 0000:2680       GDCBCR
 0000:268E       GDCLIN
 0000:26CB       GDCCIR
 0000:2781       GDCMDE
 0000:2789       GDCWAT
 0000:27C5       GDCBOX
 0000:2802       GDCLNP
 0000:2844       VMEMOPN
 0000:28FB       VMEMCLS
 0000:2912       VMEMSEK
 0293:02B4       SEG_DOS2X_PSP
 0293:091B       DLEN
 0293:091D       DLENWRT
 0293:0921       DCYL
 0293:0923       DHEAD
 0293:0925       DSECR
 0293:0927       DSECN
 0293:0929       DSTAT
 0293:092B       DERROR
 0293:0957       BUFFSEG
 0293:0959       BUFFOFS
 0293:095F       DRVNUM1
 0293:0961       DRVNUM2
 0293:119C       FLAG_BREAK
 0293:11A4       USE_EMS_PAGE
 0293:11A6       USE_MEM_PAGE
 0293:11A8       USE_VRM_PAGE
 0293:11AA       READ_CRR_DCYL
 0293:11AC       WRITE_CRR_DCYL
 0293:11AE       VERIFY_CRR_DCYL
 0293:15F0       DECST3
 0293:19CC       STR_DRV_NUM
 0293:1D8A       GX1
 0293:1D8C       GY1
 0293:1D8E       GX2
 0293:1D90       GY2
 0293:1D92       GMODE
 0293:1D94       GCODE
 0293:1D96       GCLR
 0293:1D98       GRD
 0293:1DA0       FLAG_DISABLE_VRAM
 0473:0000       EMMCHK
 0473:0028       EMM_G_S
 0473:003A       EMM_G_P_FA
 0473:0050       EMM_G_U_PC
 0473:006A       EMM_A_P
 0473:0092       EMM_A_P2
 0473:00C6       EMM_MU_H_P
 0473:00DC       EMM_D_P
 0473:0110       EMSCHK
 0473:016F       EMSOPN
 0473:019E       EMSOPN2
 0473:01DF       EMSCLS
 0473:01FE       EMSSEK
 0473:0228       EMS64K
